target datalayout = "e-m:e-p270:32:32-p271:32:32-p272:64:64-i64:64-i128:128-f80:128-n8:16:32:64-S128"
target triple = "x86_64-pc-linux-gnu"

%struct.reassembly_table = type { ptr, ptr, ptr, ptr, ptr }
%struct._packet_info = type { ptr, ptr, i32, i32, %struct.nstime_t, %struct.nstime_t, %struct.nstime_t, i8, ptr, ptr, ptr, ptr, %struct._address, %struct._address, %struct._address, %struct._address, %struct._address, %struct._address, i32, ptr, i8, [3 x i8], %struct.anon, i32, i32, i32, i32, ptr, i8, ptr, ptr, i16, i16, i32, i32, i16, i32, i32, ptr, ptr, ptr, i8, i8, i16, i16, i16, i32, i16, i16, ptr, ptr, ptr, ptr, ptr, i32, i32 }
%struct.nstime_t = type { i64, i32 }
%struct._address = type { i32, i32, ptr, ptr }
%struct.anon = type { i8, [3 x i8] }

@proto_docsis_mgmt = internal global i32 0, align 4
@docsis_tlv_reassembly_table = internal global %struct.reassembly_table zeroinitializer, align 8
@.str.2155 = private unnamed_addr constant [17 x i8] c"Reassembled TLVs\00", align 1

; Function Attrs: inlinehint nounwind null_pointer_is_valid sspstrong uwtable
define internal void @set_address(ptr noundef %0, i32 noundef %1, i32 noundef %2, ptr noundef %3) #5 {
  %5 = alloca ptr, align 8
  %6 = alloca i32, align 4
  %7 = alloca i32, align 4
  %8 = alloca ptr, align 8
  store ptr %0, ptr %5, align 8
  store i32 %1, ptr %6, align 4
  store i32 %2, ptr %7, align 4
  store ptr %3, ptr %8, align 8
  %9 = load i32, ptr %7, align 4
  %10 = icmp eq i32 %9, 0
  br i1 %10, label %11, label %14

11:                                               ; preds = %4
  br label %12

12:                                               ; preds = %11
  br label %13

13:                                               ; preds = %12
  br label %19

14:                                               ; preds = %4
  br label %15

15:                                               ; preds = %14
  br label %16

16:                                               ; preds = %15
  br label %17

17:                                               ; preds = %16
  br label %18

18:                                               ; preds = %17
  br label %19

19:                                               ; preds = %18, %13
  %20 = load i32, ptr %6, align 4
  %21 = load ptr, ptr %5, align 8
  %22 = getelementptr inbounds nuw %struct._address, ptr %21, i32 0, i32 0
  store i32 %20, ptr %22, align 8
  %23 = load i32, ptr %7, align 4
  %24 = load ptr, ptr %5, align 8
  %25 = getelementptr inbounds nuw %struct._address, ptr %24, i32 0, i32 1
  store i32 %23, ptr %25, align 4
  %26 = load ptr, ptr %8, align 8
  %27 = load ptr, ptr %5, align 8
  %28 = getelementptr inbounds nuw %struct._address, ptr %27, i32 0, i32 2
  store ptr %26, ptr %28, align 8
  %29 = load ptr, ptr %5, align 8
  %30 = getelementptr inbounds nuw %struct._address, ptr %29, i32 0, i32 3
  store ptr null, ptr %30, align 8
  ret void
}

; Function Attrs: inlinehint nounwind null_pointer_is_valid sspstrong uwtable
define internal void @copy_address_shallow(ptr noundef %0, ptr noundef %1) #5 {
  %3 = alloca ptr, align 8
  %4 = alloca ptr, align 8
  store ptr %0, ptr %3, align 8
  store ptr %1, ptr %4, align 8
  %5 = load ptr, ptr %3, align 8
  %6 = load ptr, ptr %4, align 8
  %7 = getelementptr inbounds nuw %struct._address, ptr %6, i32 0, i32 0
  %8 = load i32, ptr %7, align 8
  %9 = load ptr, ptr %4, align 8
  %10 = getelementptr inbounds nuw %struct._address, ptr %9, i32 0, i32 1
  %11 = load i32, ptr %10, align 4
  %12 = load ptr, ptr %4, align 8
  %13 = getelementptr inbounds nuw %struct._address, ptr %12, i32 0, i32 2
  %14 = load ptr, ptr %13, align 8
  call void @set_address(ptr noundef %5, i32 noundef %8, i32 noundef %11, ptr noundef %14)
  ret void
}

; Function Attrs: null_pointer_is_valid sspstrong uwtable
define internal ptr @dissect_multipart(ptr noundef %0, ptr noundef %1, ptr noundef %2, ptr noundef %3, i32 noundef %4, i32 noundef %5, i32 noundef %6) #0 {
  %8 = alloca ptr, align 8
  %9 = alloca ptr, align 8
  %10 = alloca ptr, align 8
  %11 = alloca ptr, align 8
  %12 = alloca ptr, align 8
  %13 = alloca i32, align 4
  %14 = alloca i32, align 4
  %15 = alloca i32, align 4
  %16 = alloca i32, align 4
  %17 = alloca i32, align 4
  %18 = alloca i32, align 4
  %19 = alloca i32, align 4
  %20 = alloca i32, align 4
  %21 = alloca %struct._address, align 8
  %22 = alloca %struct._address, align 8
  %23 = alloca i32, align 4
  %24 = alloca ptr, align 8
  store ptr %0, ptr %9, align 8
  store ptr %1, ptr %10, align 8
  store ptr %2, ptr %11, align 8
  store ptr %3, ptr %12, align 8
  store i32 %4, ptr %13, align 4
  store i32 %5, ptr %14, align 4
  store i32 %6, ptr %15, align 4
  call void @llvm.lifetime.start.p0(i64 4, ptr %16) #6
  call void @llvm.lifetime.start.p0(i64 4, ptr %17) #6
  store i32 0, ptr %17, align 4
  call void @llvm.lifetime.start.p0(i64 4, ptr %18) #6
  call void @llvm.lifetime.start.p0(i64 4, ptr %19) #6
  call void @llvm.lifetime.start.p0(i64 4, ptr %20) #6
  call void @llvm.lifetime.start.p0(i64 24, ptr %21) #6
  call void @llvm.lifetime.start.p0(i64 24, ptr %22) #6
  %25 = load ptr, ptr %10, align 8
  %26 = getelementptr inbounds nuw %struct._packet_info, ptr %25, i32 0, i32 51
  %27 = load ptr, ptr %26, align 8
  %28 = load ptr, ptr %10, align 8
  %29 = load i32, ptr @proto_docsis_mgmt, align 4
  %30 = call ptr @p_get_proto_data(ptr noundef %27, ptr noundef %28, i32 noundef %29, i32 noundef 0)
  %31 = ptrtoint ptr %30 to i64
  %32 = trunc i64 %31 to i32
  store i32 %32, ptr %16, align 4
  %33 = load i32, ptr %16, align 4
  %34 = icmp ugt i32 %33, 4
  br i1 %34, label %35, label %44

35:                                               ; preds = %7
  %36 = load ptr, ptr %10, align 8
  %37 = getelementptr inbounds nuw %struct._packet_info, ptr %36, i32 0, i32 51
  %38 = load ptr, ptr %37, align 8
  %39 = load ptr, ptr %10, align 8
  %40 = load i32, ptr @proto_docsis_mgmt, align 4
  %41 = call ptr @p_get_proto_data(ptr noundef %38, ptr noundef %39, i32 noundef %40, i32 noundef 1)
  %42 = ptrtoint ptr %41 to i64
  %43 = trunc i64 %42 to i32
  store i32 %43, ptr %17, align 4
  br label %44

44:                                               ; preds = %35, %7
  %45 = load i32, ptr %17, align 4
  %46 = icmp ne i32 %45, 0
  br i1 %46, label %51, label %47

47:                                               ; preds = %44
  %48 = load ptr, ptr %9, align 8
  %49 = load i32, ptr %15, align 4
  %50 = call ptr @tvb_new_subset_remaining(ptr noundef %48, i32 noundef %49)
  store ptr %50, ptr %8, align 8
  store i32 1, ptr %23, align 4
  br label %100

51:                                               ; preds = %44
  %52 = load i32, ptr %13, align 4
  %53 = shl i32 %52, 24
  %54 = load i32, ptr %14, align 4
  %55 = add i32 %54, %53
  store i32 %55, ptr %14, align 4
  %56 = load i32, ptr %17, align 4
  %57 = and i32 %56, 15
  store i32 %57, ptr %18, align 4
  %58 = load i32, ptr %17, align 4
  %59 = lshr i32 %58, 4
  store i32 %59, ptr %19, align 4
  %60 = load ptr, ptr %9, align 8
  %61 = load i32, ptr %15, align 4
  %62 = call i32 @tvb_reported_length_remaining(ptr noundef %60, i32 noundef %61)
  store i32 %62, ptr %20, align 4
  %63 = load ptr, ptr %10, align 8
  %64 = getelementptr inbounds nuw %struct._packet_info, ptr %63, i32 0, i32 16
  call void @copy_address_shallow(ptr noundef %21, ptr noundef %64)
  %65 = load ptr, ptr %10, align 8
  %66 = getelementptr inbounds nuw %struct._packet_info, ptr %65, i32 0, i32 17
  call void @copy_address_shallow(ptr noundef %22, ptr noundef %66)
  %67 = load ptr, ptr %10, align 8
  %68 = getelementptr inbounds nuw %struct._packet_info, ptr %67, i32 0, i32 16
  %69 = load ptr, ptr %10, align 8
  %70 = getelementptr inbounds nuw %struct._packet_info, ptr %69, i32 0, i32 12
  call void @copy_address_shallow(ptr noundef %68, ptr noundef %70)
  %71 = load ptr, ptr %10, align 8
  %72 = getelementptr inbounds nuw %struct._packet_info, ptr %71, i32 0, i32 17
  %73 = load ptr, ptr %10, align 8
  %74 = getelementptr inbounds nuw %struct._packet_info, ptr %73, i32 0, i32 13
  call void @copy_address_shallow(ptr noundef %72, ptr noundef %74)
  call void @llvm.lifetime.start.p0(i64 8, ptr %24) #6
  %75 = load ptr, ptr %9, align 8
  %76 = load i32, ptr %15, align 4
  %77 = load ptr, ptr %10, align 8
  %78 = load i32, ptr %14, align 4
  %79 = load i32, ptr %18, align 4
  %80 = load i32, ptr %20, align 4
  %81 = load i32, ptr %18, align 4
  %82 = load i32, ptr %19, align 4
  %83 = icmp ne i32 %81, %82
  %84 = call ptr @fragment_add_seq_check(ptr noundef @docsis_tlv_reassembly_table, ptr noundef %75, i32 noundef %76, ptr noundef %77, i32 noundef %78, ptr noundef null, i32 noundef %79, i32 noundef %80, i1 noundef zeroext %83)
  store ptr %84, ptr %24, align 8
  %85 = load ptr, ptr %10, align 8
  %86 = getelementptr inbounds nuw %struct._packet_info, ptr %85, i32 0, i32 16
  call void @copy_address_shallow(ptr noundef %86, ptr noundef %21)
  %87 = load ptr, ptr %10, align 8
  %88 = getelementptr inbounds nuw %struct._packet_info, ptr %87, i32 0, i32 17
  call void @copy_address_shallow(ptr noundef %88, ptr noundef %22)
  %89 = load ptr, ptr %24, align 8
  %90 = icmp ne ptr %89, null
  br i1 %90, label %91, label %98

91:                                               ; preds = %51
  %92 = load ptr, ptr %9, align 8
  %93 = load i32, ptr %15, align 4
  %94 = load ptr, ptr %10, align 8
  %95 = load ptr, ptr %24, align 8
  %96 = load ptr, ptr %11, align 8
  %97 = call ptr @process_reassembled_data(ptr noundef %92, i32 noundef %93, ptr noundef %94, ptr noundef @.str.2155, ptr noundef %95, ptr noundef @docsis_tlv_frag_items, ptr noundef null, ptr noundef %96)
  store ptr %97, ptr %8, align 8
  store i32 1, ptr %23, align 4
  br label %99

98:                                               ; preds = %51
  store ptr null, ptr %8, align 8
  store i32 1, ptr %23, align 4
  br label %99

99:                                               ; preds = %98, %91
  call void @llvm.lifetime.end.p0(i64 8, ptr %24) #6
  br label %100

100:                                              ; preds = %99, %47
  call void @llvm.lifetime.end.p0(i64 24, ptr %22) #6
  call void @llvm.lifetime.end.p0(i64 24, ptr %21) #6
  call void @llvm.lifetime.end.p0(i64 4, ptr %20) #6
  call void @llvm.lifetime.end.p0(i64 4, ptr %19) #6
  call void @llvm.lifetime.end.p0(i64 4, ptr %18) #6
  call void @llvm.lifetime.end.p0(i64 4, ptr %17) #6
  call void @llvm.lifetime.end.p0(i64 4, ptr %16) #6
  %101 = load ptr, ptr %8, align 8
  ret ptr %101
}