; Function Attrs: null_pointer_is_valid sspstrong uwtable
define internal fastcc ptr @dissect_multipart(ptr noundef %0, ptr noundef %1, ptr noundef %2, i32 noundef range(i32 5, 67) %3, i32 noundef %4, i32 noundef range(i32 2, 6) %5) unnamed_addr #0 {
  %7 = getelementptr inbounds nuw i8, ptr %1, i64 408
  %8 = load ptr, ptr %7, align 8
  %9 = load i32, ptr @proto_docsis_mgmt, align 4
  %10 = tail call ptr @p_get_proto_data(ptr noundef %8, ptr noundef %1, i32 noundef %9, i32 noundef 0)
  %11 = ptrtoint ptr %10 to i64
  %12 = trunc i64 %11 to i32
  %13 = icmp ugt i32 %12, 4
  br i1 %13, label %14, label %.thread

14:                                               ; preds = %6
  %15 = load ptr, ptr %7, align 8
  %16 = load i32, ptr @proto_docsis_mgmt, align 4
  %17 = tail call ptr @p_get_proto_data(ptr noundef %15, ptr noundef %1, i32 noundef %16, i32 noundef 1)
  %18 = ptrtoint ptr %17 to i64
  %19 = trunc i64 %18 to i32
  %.not = icmp eq i32 %19, 0
  br i1 %.not, label %.thread, label %21

.thread:                                          ; preds = %6, %14
  %20 = tail call ptr @tvb_new_subset_remaining(ptr noundef %0, i32 noundef %5)
  br label %57

21:                                               ; preds = %14
  %22 = shl nuw nsw i32 %3, 24
  %23 = add i32 %4, %22
  %24 = and i32 %19, 15
  %25 = lshr i32 %19, 4
  %26 = tail call i32 @tvb_reported_length_remaining(ptr noundef %0, i32 noundef %5)
  %27 = getelementptr inbounds nuw i8, ptr %1, i64 208
  %28 = load i32, ptr %27, align 8
  %29 = getelementptr inbounds nuw i8, ptr %1, i64 212
  %30 = load i32, ptr %29, align 4
  %31 = getelementptr inbounds nuw i8, ptr %1, i64 216
  %32 = load ptr, ptr %31, align 8
  %33 = getelementptr inbounds nuw i8, ptr %1, i64 232
  %34 = load i32, ptr %33, align 8
  %35 = getelementptr inbounds nuw i8, ptr %1, i64 236
  %36 = load i32, ptr %35, align 4
  %37 = getelementptr inbounds nuw i8, ptr %1, i64 240
  %38 = load ptr, ptr %37, align 8
  %39 = getelementptr inbounds nuw i8, ptr %1, i64 112
  %40 = load i32, ptr %39, align 8
  %41 = getelementptr inbounds nuw i8, ptr %1, i64 116
  %42 = load i32, ptr %41, align 4
  %43 = getelementptr inbounds nuw i8, ptr %1, i64 120
  %44 = load ptr, ptr %43, align 8
  store i32 %40, ptr %27, align 8
  store i32 %42, ptr %29, align 4
  store ptr %44, ptr %31, align 8
  %45 = getelementptr inbounds nuw i8, ptr %1, i64 224
  store ptr null, ptr %45, align 8
  %46 = getelementptr inbounds nuw i8, ptr %1, i64 136
  %47 = load i32, ptr %46, align 8
  %48 = getelementptr inbounds nuw i8, ptr %1, i64 140
  %49 = load i32, ptr %48, align 4
  %50 = getelementptr inbounds nuw i8, ptr %1, i64 144
  %51 = load ptr, ptr %50, align 8
  store i32 %47, ptr %33, align 8
  store i32 %49, ptr %35, align 4
  store ptr %51, ptr %37, align 8
  %52 = getelementptr inbounds nuw i8, ptr %1, i64 248
  store ptr null, ptr %52, align 8
  %53 = icmp ne i32 %24, %25
  %54 = tail call ptr @fragment_add_seq_check(ptr noundef nonnull @docsis_tlv_reassembly_table, ptr noundef %0, i32 noundef %5, ptr noundef %1, i32 noundef %23, ptr noundef null, i32 noundef %24, i32 noundef %26, i1 noundef zeroext %53)
  store i32 %28, ptr %27, align 8
  store i32 %30, ptr %29, align 4
  store ptr %32, ptr %31, align 8
  store ptr null, ptr %45, align 8
  store i32 %34, ptr %33, align 8
  store i32 %36, ptr %35, align 4
  store ptr %38, ptr %37, align 8
  store ptr null, ptr %52, align 8
  %.not38 = icmp eq ptr %54, null
  br i1 %.not38, label %57, label %55

55:                                               ; preds = %21
  %56 = tail call ptr @process_reassembled_data(ptr noundef %0, i32 noundef %5, ptr noundef %1, ptr noundef nonnull @.str.2155, ptr noundef nonnull %54, ptr noundef nonnull @docsis_tlv_frag_items, ptr noundef null, ptr noundef %2)
  br label %57

57:                                               ; preds = %55, %21, %.thread
  %.0 = phi ptr [ %20, %.thread ], [ %56, %55 ], [ null, %21 ]
  ret ptr %.0
}